target datalayout = "e-m:e-p270:32:32-p271:32:32-p272:64:64-i64:64-i128:128-f80:128-n8:16:32:64-S128"
target triple = "x86_64-pc-linux-gnu"

%struct.PROV_XORSIG_CTX = type { ptr, ptr, ptr, i8, [50 x i8], ptr, i64, ptr, ptr, i32 }

; Function Attrs: nounwind uwtable
define internal i32 @xor_sig_digest_signverify_update(ptr noundef %0, ptr noundef %1, i64 noundef %2) #0 {
  %4 = alloca i32, align 4
  %5 = alloca ptr, align 8
  %6 = alloca ptr, align 8
  %7 = alloca i64, align 8
  %8 = alloca ptr, align 8
  %9 = alloca i32, align 4
  store ptr %0, ptr %5, align 8, !tbaa !13
  store ptr %1, ptr %6, align 8, !tbaa !30
  store i64 %2, ptr %7, align 8, !tbaa !35
  call void @llvm.lifetime.start.p0(i64 8, ptr %8) #8
  %10 = load ptr, ptr %5, align 8, !tbaa !13
  store ptr %10, ptr %8, align 8, !tbaa !13
  %11 = load ptr, ptr %8, align 8, !tbaa !13
  %12 = icmp eq ptr %11, null
  br i1 %12, label %18, label %13

13:                                               ; preds = %3
  %14 = load ptr, ptr %8, align 8, !tbaa !13
  %15 = getelementptr inbounds nuw %struct.PROV_XORSIG_CTX, ptr %14, i32 0, i32 8
  %16 = load ptr, ptr %15, align 8, !tbaa !147
  %17 = icmp eq ptr %16, null
  br i1 %17, label %18, label %19

18:                                               ; preds = %13, %3
  store i32 0, ptr %4, align 4
  store i32 1, ptr %9, align 4
  br label %26

19:                                               ; preds = %13
  %20 = load ptr, ptr %8, align 8, !tbaa !13
  %21 = getelementptr inbounds nuw %struct.PROV_XORSIG_CTX, ptr %20, i32 0, i32 8
  %22 = load ptr, ptr %21, align 8, !tbaa !147
  %23 = load ptr, ptr %6, align 8, !tbaa !30
  %24 = load i64, ptr %7, align 8, !tbaa !35
  %25 = call i32 @EVP_DigestUpdate(ptr noundef %22, ptr noundef %23, i64 noundef %24)
  store i32 %25, ptr %4, align 4
  store i32 1, ptr %9, align 4
  br label %26

26:                                               ; preds = %19, %18
  call void @llvm.lifetime.end.p0(i64 8, ptr %8) #8
  %27 = load i32, ptr %4, align 4
  ret i32 %27
}