; Function Attrs: nounwind uwtable
define internal i32 @xor_sig_digest_signverify_update(ptr noundef readonly captures(address_is_null) %0, ptr noundef %1, i64 noundef %2) #0 {
  %4 = icmp eq ptr %0, null
  br i1 %4, label %11, label %5

5:                                                ; preds = %3
  %6 = getelementptr inbounds nuw i8, ptr %0, i64 104
  %7 = load ptr, ptr %6, align 8, !tbaa !114
  %8 = icmp eq ptr %7, null
  br i1 %8, label %11, label %9

9:                                                ; preds = %5
  %10 = tail call i32 @EVP_DigestUpdate(ptr noundef nonnull %7, ptr noundef %1, i64 noundef %2) #16
  br label %11

11:                                               ; preds = %3, %5, %9
  %.0 = phi i32 [ %10, %9 ], [ 0, %5 ], [ 0, %3 ]
  ret i32 %.0
}